#include <math.h>
#include <stdio.h>
#include <stdlib.h>
#include <string.h>

void main()
{
	 int a[300],i,j,k,l,t,e;
	 char b[300];
	 scanf("%d",&a[0]); 
	 for(i=1;getchar()!='\n';i++)
	 {
         
		 scanf("%d",&a[i]);
		 
	 }
	 for(j=0;j<i;j++)
		 for(e=j+1;e<i;e++)
			 if(a[e]==a[j])
				 a[e]=0;
	 for(j=0;j<i;j++)
	 {
		 k=j;
		 for(l=j+1;l<i;l++)
			 if(a[l]>a[k])
				 k=l;
		if(j!=k)
		{
			t=a[j];
			a[j]=a[k];
			a[k]=t;
		}
	 }
	 if(i==1)printf("No");
	 else if (a[1]==0)printf("No");
	 else printf("%d",a[1]);
   

}
		 


	   

 

